; Function Attrs: nounwind uwtable
define internal i32 @test_validate_cert_path_ok() #0 {
  %1 = alloca ptr, align 8
  call void @llvm.lifetime.start.p0(i64 8, ptr nonnull %1) #7
  %2 = tail call fastcc ptr @set_up(ptr noundef nonnull @.str.63)
  store ptr %2, ptr %1, align 8, !tbaa !36
  %3 = icmp eq ptr %2, null
  br i1 %3, label %21, label %4

4:                                                ; preds = %0
  call fastcc void @setup_path(ptr noundef %1, ptr noundef null, i32 noundef 0)
  %5 = load ptr, ptr %1, align 8, !tbaa !36
  %.not = icmp eq ptr %5, null
  br i1 %.not, label %21, label %6

6:                                                ; preds = %4
  %7 = getelementptr inbounds nuw i8, ptr %5, i64 16
  %8 = load ptr, ptr %7, align 8, !tbaa !28
  %9 = tail call ptr @OSSL_CMP_CTX_get0_trustedStore(ptr noundef %8) #7
  %10 = getelementptr inbounds nuw i8, ptr %5, i64 8
  %11 = load i32, ptr %10, align 8, !tbaa !24
  %12 = load ptr, ptr %7, align 8, !tbaa !28
  %13 = getelementptr inbounds nuw i8, ptr %5, i64 32
  %14 = load ptr, ptr %13, align 8, !tbaa !29
  %15 = tail call i32 @OSSL_CMP_validate_cert_path(ptr noundef %12, ptr noundef %9, ptr noundef %14) #7
  %16 = tail call i32 @test_int_eq(ptr noundef nonnull @.str.14, i32 noundef 150, ptr noundef nonnull @.str.75, ptr noundef nonnull @.str.90, i32 noundef %11, i32 noundef %15) #7
  %17 = load ptr, ptr %7, align 8, !tbaa !28
  tail call void @OSSL_CMP_CTX_print_errors(ptr noundef %17) #7
  %18 = getelementptr inbounds nuw i8, ptr %5, i64 24
  %19 = load ptr, ptr %18, align 8, !tbaa !27
  tail call void @OSSL_CMP_MSG_free(ptr noundef %19) #7
  %20 = load ptr, ptr %7, align 8, !tbaa !28
  tail call void @OSSL_CMP_CTX_free(ptr noundef %20) #7
  tail call void @CRYPTO_free(ptr noundef nonnull %5, ptr noundef nonnull @.str.14, i32 noundef 47) #7
  br label %21

21:                                               ; preds = %4, %6, %0
  %.02 = phi i32 [ 0, %0 ], [ %16, %6 ], [ 0, %4 ]
  call void @llvm.lifetime.end.p0(i64 8, ptr nonnull %1) #7
  ret i32 %.02
}